; ModuleID = '29/228.c'
source_filename = "29/228.c"
target datalayout = "e-m:e-p270:32:32-p271:32:32-p272:64:64-i64:64-f80:128-n8:16:32:64-S128"
target triple = "x86_64-pc-linux-gnu"

@.str = private unnamed_addr constant [3 x i8] c"%d\00", align 1
@.str.1 = private unnamed_addr constant [6 x i8] c"%.3f\0A\00", align 1

; Function Attrs: noinline nounwind uwtable
define dso_local i32 @main() #0 {
  %1 = alloca i32, align 4
  %2 = alloca i32, align 4
  %3 = alloca i32, align 4
  %4 = alloca i32, align 4
  %5 = alloca i32, align 4
  %6 = alloca i32, align 4
  %7 = alloca float, align 4
  %8 = alloca float, align 4
  %9 = alloca i32, align 4
  %10 = alloca i32, align 4
  store i32 0, i32* %1, align 4
  %11 = call i32 (i8*, ...) @__isoc99_scanf(i8* getelementptr inbounds ([3 x i8], [3 x i8]* @.str, i64 0, i64 0), i32* %2)
  store i32 0, i32* %3, align 4
  br label %12

12:                                               ; preds = %43, %0
  %13 = load i32, i32* %3, align 4
  %14 = load i32, i32* %2, align 4
  %15 = icmp slt i32 %13, %14
  br i1 %15, label %16, label %46

16:                                               ; preds = %12
  %17 = call i32 (i8*, ...) @__isoc99_scanf(i8* getelementptr inbounds ([3 x i8], [3 x i8]* @.str, i64 0, i64 0), i32* %5)
  store float 0.000000e+00, float* %8, align 4
  store i32 1, i32* %9, align 4
  store i32 1, i32* %10, align 4
  store i32 0, i32* %4, align 4
  br label %18

18:                                               ; preds = %36, %16
  %19 = load i32, i32* %4, align 4
  %20 = load i32, i32* %5, align 4
  %21 = icmp slt i32 %19, %20
  br i1 %21, label %22, label %39

22:                                               ; preds = %18
  %23 = load i32, i32* %10, align 4
  %24 = load i32, i32* %9, align 4
  %25 = add nsw i32 %23, %24
  store i32 %25, i32* %6, align 4
  %26 = load i32, i32* %10, align 4
  store i32 %26, i32* %9, align 4
  %27 = load i32, i32* %6, align 4
  store i32 %27, i32* %10, align 4
  %28 = load i32, i32* %10, align 4
  %29 = sitofp i32 %28 to float
  %30 = load i32, i32* %9, align 4
  %31 = sitofp i32 %30 to float
  %32 = fdiv float %29, %31
  store float %32, float* %7, align 4
  %33 = load float, float* %7, align 4
  %34 = load float, float* %8, align 4
  %35 = fadd float %34, %33
  store float %35, float* %8, align 4
  br label %36

36:                                               ; preds = %22
  %37 = load i32, i32* %4, align 4
  %38 = add nsw i32 %37, 1
  store i32 %38, i32* %4, align 4
  br label %18

39:                                               ; preds = %18
  %40 = load float, float* %8, align 4
  %41 = fpext float %40 to double
  %42 = call i32 (i8*, ...) @printf(i8* getelementptr inbounds ([6 x i8], [6 x i8]* @.str.1, i64 0, i64 0), double %41)
  br label %43

43:                                               ; preds = %39
  %44 = load i32, i32* %3, align 4
  %45 = add nsw i32 %44, 1
  store i32 %45, i32* %3, align 4
  br label %12

46:                                               ; preds = %12
  ret i32 0
}

declare dso_local i32 @__isoc99_scanf(i8*, ...) #1

declare dso_local i32 @printf(i8*, ...) #1


!llvm.module.flags = !{!0}
!llvm.ident = !{!1}

!0 = !{i32 1, !"wchar_size", i32 4}
!1 = !{!"clang version 10.0.0-4ubuntu1 "}
